(lp0
(F272.5
F0.20295058326990106
tp1
a(F300.0
F0.21432543200728474
tp2
a(F305.0
F0.4500292494244057
tp3
a(F310.0
F0.7132797666042929
tp4
a(F315.0
F0.8589999438711131
tp5
a(F320.0
F0.9151228165526363
tp6
a(F325.0
F0.9261658553973748
tp7
a(F330.0
F0.9321587023970228
tp8
a(F335.0
F0.9367442176053601
tp9
a(F340.0
F0.9334542028143712
tp10
a(F345.0
F0.946027900621731
tp11
a(F350.0
F0.9624587278566777
tp12
a(F355.0
F0.978171050649713
tp13
a(F360.0
F0.9873518554079633
tp14
a(F365.0
F0.9928211785192317
tp15
a(F370.0
F0.9943672544475043
tp16
a(F375.0
F0.9963442026043272
tp17
a(F380.0
F0.9948028706188272
tp18
a(F385.0
F0.995936358949875
tp19
a(F390.0
F0.9977398362856643
tp20
a(F395.0
F0.9978594856064676
tp21
a(F400.0
F0.998093604240582
tp22
a(F405.0
F0.9988256847747122
tp23
a(F410.0
F0.9997697122824641
tp24
a(F415.0
F0.9994717689810129
tp25
a(F420.0
F0.9994594512795832
tp26
a(F425.0
F0.9994392576841664
tp27
a(F430.0
F1.000044579696381
tp28
a(F435.0
F0.9993491342744891
tp29
a(F440.0
F0.9997001375233007
tp30
a(F445.0
F1.0
tp31
a(F450.0
F1.0000109456393464
tp32
a(F455.0
F1.0
tp33
a(F460.0
F1.0000004130414175
tp34
a(F465.0
F1.0000472103571854
tp35
a(F470.0
F1.0000167614138389
tp36
a(F475.0
F0.9999999999999999
tp37
a(F480.0
F1.0
tp38
a(F485.0
F1.0
tp39
a(F490.0
F1.0
tp40
a(F495.0
F1.0
tp41
a(F500.0
F1.0
tp42
a(F505.0
F1.0000318184566832
tp43
a(F510.0
F1.0
tp44
a(F515.0
F1.0
tp45
a(F520.0
F1.0
tp46
a(F525.0
F1.0
tp47
a(F530.0
F0.9999999999999999
tp48
a(F535.0
F1.0000177690451295
tp49
a(F540.0
F1.0
tp50
a(F545.0
F1.0000003076935575
tp51
a.