(lp0
(F277.5
F0.17394587728906205
tp1
a(F310.0
F0.6459310909040534
tp2
a(F315.0
F0.83339382498683
tp3
a(F320.0
F0.9031276621331957
tp4
a(F325.0
F0.9190281210424017
tp5
a(F330.0
F0.9182860679818862
tp6
a(F335.0
F0.933311580392191
tp7
a(F340.0
F0.9273031745004605
tp8
a(F345.0
F0.9385023259053111
tp9
a(F350.0
F0.9578135936252982
tp10
a(F355.0
F0.974524249324785
tp11
a(F360.0
F0.9861952873993505
tp12
a(F365.0
F0.9911438321883942
tp13
a(F370.0
F0.9916719815605519
tp14
a(F375.0
F0.9933917082368975
tp15
a(F380.0
F0.9942940775039057
tp16
a(F385.0
F0.9966752599696516
tp17
a(F390.0
F0.9972124143325494
tp18
a(F395.0
F0.9950963896279789
tp19
a(F400.0
F0.9983107606785695
tp20
a(F405.0
F0.9992732093281727
tp21
a(F410.0
F0.9992196496888123
tp22
a(F415.0
F0.9995683278715415
tp23
a(F420.0
F0.9991086054111105
tp24
a(F425.0
F0.999079604963155
tp25
a(F430.0
F0.999542549284887
tp26
a(F435.0
F0.999457546589177
tp27
a(F440.0
F1.0000434411419554
tp28
a(F445.0
F1.0
tp29
a(F450.0
F1.0000109456393464
tp30
a(F455.0
F1.0
tp31
a(F460.0
F1.0000004130414173
tp32
a(F465.0
F1.0000472103571854
tp33
a(F470.0
F1.0000167614138389
tp34
a(F475.0
F1.0
tp35
a(F480.0
F1.0
tp36
a(F485.0
F1.0
tp37
a(F490.0
F1.0
tp38
a(F495.0
F1.0
tp39
a(F500.0
F0.9999999999999999
tp40
a(F505.0
F1.0000318184566832
tp41
a(F510.0
F0.9999999999999999
tp42
a(F515.0
F1.0
tp43
a(F520.0
F1.0
tp44
a(F525.0
F1.0
tp45
a(F530.0
F1.0
tp46
a(F535.0
F1.0000177690451297
tp47
a(F540.0
F0.9999999999999999
tp48
a(F545.0
F1.0000003076935575
tp49
a.