(lp0
(F270.0
F0.3262779652048873
tp1
a(F297.5
F0.16529904990105526
tp2
a(F305.0
F0.4173504161328034
tp3
a(F310.0
F0.697235840680291
tp4
a(F315.0
F0.8553046532602734
tp5
a(F320.0
F0.9138130185463422
tp6
a(F325.0
F0.9278022468627157
tp7
a(F330.0
F0.931324794933737
tp8
a(F335.0
F0.9383928329357808
tp9
a(F340.0
F0.9363518714312872
tp10
a(F345.0
F0.9464089810318866
tp11
a(F350.0
F0.9644371485617763
tp12
a(F355.0
F0.9778775361682985
tp13
a(F360.0
F0.9878751673013706
tp14
a(F365.0
F0.9921790801241911
tp15
a(F370.0
F0.9938786302553869
tp16
a(F375.0
F0.99587928299491
tp17
a(F380.0
F0.9943477559715839
tp18
a(F385.0
F0.9968794990967648
tp19
a(F390.0
F0.9975076759223991
tp20
a(F395.0
F0.9974383364752407
tp21
a(F400.0
F0.9986151863715436
tp22
a(F405.0
F0.9989074564381862
tp23
a(F410.0
F0.999629952843418
tp24
a(F415.0
F0.9994857150987194
tp25
a(F420.0
F0.9993651293056527
tp26
a(F425.0
F0.9995657838094422
tp27
a(F430.0
F0.999920934224114
tp28
a(F435.0
F0.9994894049971011
tp29
a(F440.0
F0.9999057699633843
tp30
a(F445.0
F1.0
tp31
a(F450.0
F1.0000109456393464
tp32
a(F455.0
F0.9998404849258254
tp33
a(F460.0
F1.0000004130414173
tp34
a(F465.0
F1.0000472103571854
tp35
a(F470.0
F1.0000167614138389
tp36
a(F475.0
F1.0
tp37
a(F480.0
F1.0
tp38
a(F485.0
F1.0
tp39
a(F490.0
F1.0
tp40
a(F495.0
F1.0
tp41
a(F500.0
F1.0
tp42
a(F505.0
F1.0000318184566832
tp43
a(F510.0
F1.0
tp44
a(F515.0
F1.0
tp45
a(F520.0
F0.9999999999999999
tp46
a(F525.0
F0.9999999999999999
tp47
a(F530.0
F1.0
tp48
a(F535.0
F1.0000177690451295
tp49
a(F540.0
F1.0
tp50
a(F545.0
F1.0000003076935575
tp51
a.